; ModuleID = 'bench/sdl/original/SDL_x11xtest.ll'
source_filename = "bench/sdl/original/SDL_x11xtest.ll"
target datalayout = "e-m:e-p270:32:32-p271:32:32-p272:64:64-i64:64-i128:128-f80:128-n8:16:32:64-S128"
target triple = "x86_64-pc-linux-gnu"

; Function Attrs: mustprogress nofree norecurse nosync nounwind willreturn memory(none) uwtable
define hidden void @X11_InitXTest(ptr noundef readnone captures(none) %0) local_unnamed_addr #0 {
  ret void
}

; Function Attrs: mustprogress nofree norecurse nosync nounwind willreturn memory(none) uwtable
define hidden noundef zeroext i1 @X11_XTestIsInitialized() local_unnamed_addr #0 {
  ret i1 false
}

; Function Attrs: mustprogress nofree norecurse nosync nounwind willreturn memory(none) uwtable
define hidden noundef zeroext i1 @X11_WarpMouseXTest(ptr noundef readnone captures(none) %0, ptr noundef readnone captures(none) %1, float noundef %2, float noundef %3) local_unnamed_addr #0 {
  ret i1 false
}


!llvm.module.flags = !{!0, !1, !2}

!0 = !{i32 1, !"wchar_size", i32 4}
!1 = !{i32 8, !"PIC Level", i32 2}
!2 = !{i32 7, !"uwtable", i32 2}
